; Function Attrs: nounwind uwtable
define internal i32 @test_cmp_create_cr_without_key() #0 {
  %1 = tail call fastcc ptr @set_up(ptr noundef nonnull @.str.35)
  %2 = icmp eq ptr %1, null
  br i1 %2, label %14, label %3

3:                                                ; preds = %0
  %4 = getelementptr inbounds nuw i8, ptr %1, i64 16
  store i32 2, ptr %4, align 8, !tbaa !17
  %5 = getelementptr inbounds nuw i8, ptr %1, i64 20
  store i32 -1, ptr %5, align 4, !tbaa !23
  %6 = getelementptr inbounds nuw i8, ptr %1, i64 40
  store i32 0, ptr %6, align 8, !tbaa !24
  %7 = tail call fastcc i32 @execute_certreq_create_test(ptr noundef %1)
  %8 = getelementptr inbounds nuw i8, ptr %1, i64 8
  %9 = load ptr, ptr %8, align 8, !tbaa !25
  tail call void @OSSL_CMP_CTX_free(ptr noundef %9) #4
  %10 = getelementptr inbounds nuw i8, ptr %1, i64 32
  %11 = load ptr, ptr %10, align 8, !tbaa !26
  tail call void @OSSL_CMP_MSG_free(ptr noundef %11) #4
  %12 = getelementptr inbounds nuw i8, ptr %1, i64 48
  %13 = load ptr, ptr %12, align 8, !tbaa !27
  tail call void @OSSL_CMP_PKISI_free(ptr noundef %13) #4
  tail call void @CRYPTO_free(ptr noundef nonnull %1, ptr noundef nonnull @.str.14, i32 noundef 43) #4
  br label %14

14:                                               ; preds = %0, %3
  %.08 = phi i32 [ %7, %3 ], [ 0, %0 ]
  ret i32 %.08
}